target datalayout = "e-m:e-p270:32:32-p271:32:32-p272:64:64-i64:64-i128:128-f80:128-n8:16:32:64-S128"
target triple = "x86_64-pc-linux-gnu"

%struct.persist_msg_t = type { ptr, ptr, i16 }
%struct.dbd_list_msg_t = type { ptr, i32 }
%struct.dbd_modify_msg_t = type { ptr, ptr }
%struct.persist_rc_msg_t = type { ptr, i16, i32, i16 }
%struct.slurmdb_job_cond_t = type { ptr, ptr, ptr, ptr, i32, i32, i32, i32, i32, ptr, ptr, ptr, i32, i32, ptr, ptr, ptr, ptr, ptr, ptr, ptr, i32, i32, i64, i64, ptr, ptr, ptr }

@.str.7 = private unnamed_addr constant [3 x i8] c"%s\00", align 1
@.str.8 = private unnamed_addr constant [35 x i8] c"response type not DBD_GOT_LIST: %u\00", align 1
@.str.13 = private unnamed_addr constant [27 x i8] c"DBD_MODIFY_JOB failure: %m\00", align 1

; Function Attrs: nounwind uwtable
define dso_local ptr @acct_storage_p_modify_job(ptr noundef %0, i32 noundef %1, ptr noundef %2, ptr noundef %3) #0 {
  %5 = alloca ptr, align 8
  %6 = alloca i32, align 4
  %7 = alloca ptr, align 8
  %8 = alloca ptr, align 8
  %9 = alloca %struct.persist_msg_t, align 8
  %10 = alloca %struct.persist_msg_t, align 8
  %11 = alloca %struct.dbd_modify_msg_t, align 8
  %12 = alloca ptr, align 8
  %13 = alloca ptr, align 8
  %14 = alloca i32, align 4
  %15 = alloca ptr, align 8
  store ptr %0, ptr %5, align 8
  store i32 %1, ptr %6, align 4
  store ptr %2, ptr %7, align 8
  store ptr %3, ptr %8, align 8
  call void @llvm.lifetime.start.p0(i64 24, ptr %9) #9
  call void @llvm.memset.p0.i64(ptr align 8 %9, i8 0, i64 24, i1 false)
  call void @llvm.lifetime.start.p0(i64 24, ptr %10) #9
  call void @llvm.memset.p0.i64(ptr align 8 %10, i8 0, i64 24, i1 false)
  call void @llvm.lifetime.start.p0(i64 16, ptr %11) #9
  call void @llvm.lifetime.start.p0(i64 8, ptr %12) #9
  call void @llvm.lifetime.start.p0(i64 8, ptr %13) #9
  store ptr null, ptr %13, align 8
  call void @llvm.lifetime.start.p0(i64 4, ptr %14) #9
  call void @llvm.memset.p0.i64(ptr align 8 %11, i8 0, i64 16, i1 false)
  %16 = load ptr, ptr %7, align 8
  %17 = getelementptr inbounds nuw %struct.dbd_modify_msg_t, ptr %11, i32 0, i32 0
  store ptr %16, ptr %17, align 8
  %18 = load ptr, ptr %8, align 8
  %19 = getelementptr inbounds nuw %struct.dbd_modify_msg_t, ptr %11, i32 0, i32 1
  store ptr %18, ptr %19, align 8
  %20 = getelementptr inbounds nuw %struct.persist_msg_t, ptr %9, i32 0, i32 2
  store i16 1476, ptr %20, align 8
  %21 = load ptr, ptr %5, align 8
  %22 = getelementptr inbounds nuw %struct.persist_msg_t, ptr %9, i32 0, i32 0
  store ptr %21, ptr %22, align 8
  %23 = getelementptr inbounds nuw %struct.persist_msg_t, ptr %9, i32 0, i32 1
  store ptr %11, ptr %23, align 8
  %24 = load ptr, ptr %7, align 8
  %25 = icmp ne ptr %24, null
  br i1 %25, label %26, label %35

26:                                               ; preds = %4
  %27 = load ptr, ptr %7, align 8
  %28 = getelementptr inbounds nuw %struct.slurmdb_job_cond_t, ptr %27, i32 0, i32 8
  %29 = load i32, ptr %28, align 8
  %30 = zext i32 %29 to i64
  %31 = and i64 %30, 64
  %32 = icmp ne i64 %31, 0
  br i1 %32, label %33, label %35

33:                                               ; preds = %26
  %34 = call i32 @slurmdbd_agent_send(i16 noundef zeroext 11008, ptr noundef %9)
  br label %96

35:                                               ; preds = %26, %4
  %36 = call i32 @dbd_conn_send_recv(i16 noundef zeroext 11008, ptr noundef %9, ptr noundef %10)
  store i32 %36, ptr %14, align 4
  %37 = load i32, ptr %14, align 4
  %38 = icmp ne i32 %37, 0
  br i1 %38, label %39, label %41

39:                                               ; preds = %35
  %40 = call i32 (ptr, ...) @slurm_error(ptr noundef @.str.13)
  br label %95

41:                                               ; preds = %35
  %42 = getelementptr inbounds nuw %struct.persist_msg_t, ptr %10, i32 0, i32 2
  %43 = load i16, ptr %42, align 8
  %44 = zext i16 %43 to i32
  %45 = icmp eq i32 %44, 1433
  br i1 %45, label %46, label %74

46:                                               ; preds = %41
  call void @llvm.lifetime.start.p0(i64 8, ptr %15) #9
  %47 = getelementptr inbounds nuw %struct.persist_msg_t, ptr %10, i32 0, i32 1
  %48 = load ptr, ptr %47, align 8
  store ptr %48, ptr %15, align 8
  %49 = load ptr, ptr %15, align 8
  %50 = getelementptr inbounds nuw %struct.persist_rc_msg_t, ptr %49, i32 0, i32 2
  %51 = load i32, ptr %50, align 4
  %52 = icmp eq i32 %51, 0
  br i1 %52, label %53, label %58

53:                                               ; preds = %46
  %54 = load ptr, ptr %15, align 8
  %55 = getelementptr inbounds nuw %struct.persist_rc_msg_t, ptr %54, i32 0, i32 0
  %56 = load ptr, ptr %55, align 8
  call void (i32, ptr, ...) @slurm_log_var(i32 noundef 3, ptr noundef @.str.7, ptr noundef %56)
  %57 = call ptr @slurm_list_create(ptr noundef null)
  store ptr %57, ptr %13, align 8
  br label %72

58:                                               ; preds = %46
  %59 = load ptr, ptr %15, align 8
  %60 = getelementptr inbounds nuw %struct.persist_rc_msg_t, ptr %59, i32 0, i32 2
  %61 = load i32, ptr %60, align 4
  %62 = call ptr @__errno_location() #10
  store i32 %61, ptr %62, align 4
  %63 = call ptr @__errno_location() #10
  %64 = load i32, ptr %63, align 4
  %65 = icmp ne i32 %64, 1900
  br i1 %65, label %66, label %71

66:                                               ; preds = %58
  %67 = load ptr, ptr %15, align 8
  %68 = getelementptr inbounds nuw %struct.persist_rc_msg_t, ptr %67, i32 0, i32 0
  %69 = load ptr, ptr %68, align 8
  %70 = call i32 (ptr, ...) @slurm_error(ptr noundef @.str.7, ptr noundef %69)
  br label %71

71:                                               ; preds = %66, %58
  br label %72

72:                                               ; preds = %71, %53
  %73 = load ptr, ptr %15, align 8
  call void @slurm_persist_free_rc_msg(ptr noundef %73)
  call void @llvm.lifetime.end.p0(i64 8, ptr %15) #9
  br label %94

74:                                               ; preds = %41
  %75 = getelementptr inbounds nuw %struct.persist_msg_t, ptr %10, i32 0, i32 2
  %76 = load i16, ptr %75, align 8
  %77 = zext i16 %76 to i32
  %78 = icmp ne i32 %77, 1422
  br i1 %78, label %79, label %84

79:                                               ; preds = %74
  %80 = getelementptr inbounds nuw %struct.persist_msg_t, ptr %10, i32 0, i32 2
  %81 = load i16, ptr %80, align 8
  %82 = zext i16 %81 to i32
  %83 = call i32 (ptr, ...) @slurm_error(ptr noundef @.str.8, i32 noundef %82)
  br label %93

84:                                               ; preds = %74
  %85 = getelementptr inbounds nuw %struct.persist_msg_t, ptr %10, i32 0, i32 1
  %86 = load ptr, ptr %85, align 8
  store ptr %86, ptr %12, align 8
  %87 = load ptr, ptr %12, align 8
  %88 = getelementptr inbounds nuw %struct.dbd_list_msg_t, ptr %87, i32 0, i32 0
  %89 = load ptr, ptr %88, align 8
  store ptr %89, ptr %13, align 8
  %90 = load ptr, ptr %12, align 8
  %91 = getelementptr inbounds nuw %struct.dbd_list_msg_t, ptr %90, i32 0, i32 0
  store ptr null, ptr %91, align 8
  %92 = load ptr, ptr %12, align 8
  call void @slurm_slurmdbd_free_list_msg(ptr noundef %92)
  br label %93

93:                                               ; preds = %84, %79
  br label %94

94:                                               ; preds = %93, %72
  br label %95

95:                                               ; preds = %94, %39
  br label %96

96:                                               ; preds = %95, %33
  %97 = load ptr, ptr %13, align 8
  call void @llvm.lifetime.end.p0(i64 4, ptr %14) #9
  call void @llvm.lifetime.end.p0(i64 8, ptr %13) #9
  call void @llvm.lifetime.end.p0(i64 8, ptr %12) #9
  call void @llvm.lifetime.end.p0(i64 16, ptr %11) #9
  call void @llvm.lifetime.end.p0(i64 24, ptr %10) #9
  call void @llvm.lifetime.end.p0(i64 24, ptr %9) #9
  ret ptr %97
}