; Function Attrs: nounwind uwtable
define dso_local ptr @acct_storage_p_modify_job(ptr noundef %0, i32 noundef %1, ptr noundef %2, ptr noundef %3) local_unnamed_addr #0 {
  %5 = alloca %struct.persist_msg_t, align 8
  %6 = alloca %struct.persist_msg_t, align 8
  %7 = alloca %struct.dbd_modify_msg_t, align 8
  call void @llvm.lifetime.start.p0(i64 24, ptr nonnull %5) #11
  %8 = getelementptr inbounds nuw i8, ptr %5, i64 16
  store i64 0, ptr %8, align 8
  call void @llvm.lifetime.start.p0(i64 24, ptr nonnull %6) #11
  call void @llvm.memset.p0.i64(ptr noundef nonnull align 8 dereferenceable(24) %6, i8 0, i64 24, i1 false)
  call void @llvm.lifetime.start.p0(i64 16, ptr nonnull %7) #11
  store ptr %2, ptr %7, align 8
  %9 = getelementptr inbounds nuw i8, ptr %7, i64 8
  store ptr %3, ptr %9, align 8
  %10 = getelementptr inbounds nuw i8, ptr %5, i64 16
  store i16 1476, ptr %10, align 8
  store ptr %0, ptr %5, align 8
  %11 = getelementptr inbounds nuw i8, ptr %5, i64 8
  store ptr %7, ptr %11, align 8
  %.not = icmp eq ptr %2, null
  br i1 %.not, label %18, label %12

12:                                               ; preds = %4
  %13 = getelementptr inbounds nuw i8, ptr %2, i64 48
  %14 = load i32, ptr %13, align 8
  %15 = and i32 %14, 64
  %.not17 = icmp eq i32 %15, 0
  br i1 %.not17, label %18, label %16

16:                                               ; preds = %12
  %17 = call i32 @slurmdbd_agent_send(i16 noundef zeroext 11008, ptr noundef nonnull %5) #11
  br label %47

18:                                               ; preds = %12, %4
  %19 = call i32 @dbd_conn_send_recv(i16 noundef zeroext 11008, ptr noundef nonnull %5, ptr noundef nonnull %6) #11
  %.not18 = icmp eq i32 %19, 0
  br i1 %.not18, label %22, label %20

20:                                               ; preds = %18
  %21 = call i32 (ptr, ...) @slurm_error(ptr noundef nonnull @.str.13) #11
  br label %47

22:                                               ; preds = %18
  %23 = getelementptr inbounds nuw i8, ptr %6, i64 16
  %24 = load i16, ptr %23, align 8
  switch i16 %24, label %40 [
    i16 1433, label %25
    i16 1422, label %43
  ]

25:                                               ; preds = %22
  %26 = getelementptr inbounds nuw i8, ptr %6, i64 8
  %27 = load ptr, ptr %26, align 8
  %28 = getelementptr inbounds nuw i8, ptr %27, i64 12
  %29 = load i32, ptr %28, align 4
  %30 = icmp eq i32 %29, 0
  br i1 %30, label %31, label %34

31:                                               ; preds = %25
  %32 = load ptr, ptr %27, align 8
  call void (i32, ptr, ...) @slurm_log_var(i32 noundef 3, ptr noundef nonnull @.str.7, ptr noundef %32) #11
  %33 = call ptr @slurm_list_create(ptr noundef null) #11
  br label %39

34:                                               ; preds = %25
  %35 = tail call ptr @__errno_location() #12
  store i32 %29, ptr %35, align 4
  %.not20 = icmp eq i32 %29, 1900
  br i1 %.not20, label %39, label %36

36:                                               ; preds = %34
  %37 = load ptr, ptr %27, align 8
  %38 = call i32 (ptr, ...) @slurm_error(ptr noundef nonnull @.str.7, ptr noundef %37) #11
  br label %39

39:                                               ; preds = %34, %36, %31
  %.1 = phi ptr [ %33, %31 ], [ null, %36 ], [ null, %34 ]
  call void @slurm_persist_free_rc_msg(ptr noundef nonnull %27) #11
  br label %47

40:                                               ; preds = %22
  %41 = zext i16 %24 to i32
  %42 = call i32 (ptr, ...) @slurm_error(ptr noundef nonnull @.str.8, i32 noundef %41) #11
  br label %47

43:                                               ; preds = %22
  %44 = getelementptr inbounds nuw i8, ptr %6, i64 8
  %45 = load ptr, ptr %44, align 8
  %46 = load ptr, ptr %45, align 8
  store ptr null, ptr %45, align 8
  call void @slurm_slurmdbd_free_list_msg(ptr noundef nonnull %45) #11
  br label %47

47:                                               ; preds = %20, %40, %43, %39, %16
  %.0 = phi ptr [ null, %16 ], [ null, %20 ], [ %.1, %39 ], [ null, %40 ], [ %46, %43 ]
  call void @llvm.lifetime.end.p0(i64 16, ptr nonnull %7) #11
  call void @llvm.lifetime.end.p0(i64 24, ptr nonnull %6) #11
  call void @llvm.lifetime.end.p0(i64 24, ptr nonnull %5) #11
  ret ptr %.0
}